(lp0
(lp1
I388
acnumpy.core.multiarray
scalar
p2
(cnumpy
dtype
p3
(S'f8'
p4
I0
I1
tp5
Rp6
(I3
S'<'
p7
NNNI-1
I-1
I0
tp8
bS'\xec\x81o\xba\xf6\x16Z@'
p9
tp10
Rp11
aa(lp12
I888
ag2
(g6
S'\x9dA[C*\x15`\xc0'
p13
tp14
Rp15
aa(lp16
I1101
ag2
(g6
S'%\xe6\xe6fV\xf5$\xc0'
p17
tp18
Rp19
aa(lp20
I1342
ag2
(g6
S'(*#\x88\xf0\xc5^@'
p21
tp22
Rp23
aa.