(lp0
(lp1
I500
acnumpy.core.multiarray
scalar
p2
(cnumpy
dtype
p3
(S'f8'
p4
I0
I1
tp5
Rp6
(I3
S'<'
p7
NNNI-1
I-1
I0
tp8
bS'\xf1\xa9\x125\x9b\x9eC\xc0'
p9
tp10
Rp11
aa(lp12
I1000
ag2
(g6
S'\xc1e"[]\xd1@\xc0'
p13
tp14
Rp15
aa(lp16
I1500
ag2
(g6
S'k \x8aO\x90NB\xc0'
p17
tp18
Rp19
aa(lp20
I2000
ag2
(g6
S'#\xb7f\xd6\x17\x9b<\xc0'
p21
tp22
Rp23
aa(lp24
I2050
ag2
(g6
S'\xbaVC\xf2\xe5\xa2\x07\xc0'
p25
tp26
Rp27
aa(lp28
I2337
ag2
(g6
S'\xf1:\tVX\x075\xc0'
p29
tp30
Rp31
aa(lp32
I2837
ag2
(g6
S'T\x9a\x9b\xfb\xf1U?\xc0'
p33
tp34
Rp35
aa(lp36
I3337
ag2
(g6
S'r\xba\x18\xc7D*@\xc0'
p37
tp38
Rp39
aa(lp40
I3837
ag2
(g6
S'\x92d\x8eG_x@\xc0'
p41
tp42
Rp43
aa.