(lp0
(lp1
I373
acnumpy.core.multiarray
scalar
p2
(cnumpy
dtype
p3
(S'f8'
p4
I0
I1
tp5
Rp6
(I3
S'<'
p7
NNNI-1
I-1
I0
tp8
bS'q\xf5\x08>\xb1\x02u@'
p9
tp10
Rp11
aa(lp12
I422
ag2
(g6
S'\x06CA\xda\xbe\xc0J@'
p13
tp14
Rp15
aa(lp16
I660
ag2
(g6
S'r\x1d8h5\xa1d\xc0'
p17
tp18
Rp19
aa(lp20
I661
aI-100
aa(lp21
I1161
ag2
(g6
S'J\xf7(\xb3uIa\xc0'
p22
tp23
Rp24
aa(lp25
I1245
ag2
(g6
S'\xc5\xd2~wr<_\xc0'
p26
tp27
Rp28
aa(lp29
I1246
aI-100
aa.