(lp0
(lp1
I339
acnumpy.core.multiarray
scalar
p2
(cnumpy
dtype
p3
(S'f8'
p4
I0
I1
tp5
Rp6
(I3
S'<'
p7
NNNI-1
I-1
I0
tp8
bS',E0O\x1f\xdca@'
p9
tp10
Rp11
aa(lp12
I423
ag2
(g6
S'\xc0\x8f\xac\xadfLU@'
p13
tp14
Rp15
aa.