(lp0
(lp1
I123
acnumpy.core.multiarray
scalar
p2
(cnumpy
dtype
p3
(S'f8'
p4
I0
I1
tp5
Rp6
(I3
S'<'
p7
NNNI-1
I-1
I0
tp8
bS'\xc95-i\xa2z^\xc0'
p9
tp10
Rp11
aa(lp12
I623
ag2
(g6
S'\xb6\xd70\xe2\xa6)P\xc0'
p13
tp14
Rp15
aa.