(lp0
(lp1
I500
acnumpy.core.multiarray
scalar
p2
(cnumpy
dtype
p3
(S'f8'
p4
I0
I1
tp5
Rp6
(I3
S'<'
p7
NNNI-1
I-1
I0
tp8
bS'\x89ih%$6a\xc0'
p9
tp10
Rp11
aa(lp12
I1000
ag2
(g6
S'!\x85\xe9X\xa0\x84b\xc0'
p13
tp14
Rp15
aa(lp16
I1500
ag2
(g6
S'\x9b\xe8?\x1e\xe71]\xc0'
p17
tp18
Rp19
aa(lp20
I2000
ag2
(g6
S'\x89<\x13\xaa\x81\xf3\\\xc0'
p21
tp22
Rp23
aa(lp24
I2500
ag2
(g6
S'D\xba\x9d\xd9Un]@'
p25
tp26
Rp27
aa(lp28
I2666
ag2
(g6
S'h\x11&\xfe\xd32B@'
p29
tp30
Rp31
aa(lp32
I2904
ag2
(g6
S'=\x0e|\xfe\xcd\xc3\x11@'
p33
tp34
Rp35
aa.