(lp0
(lp1
I500
acnumpy.core.multiarray
scalar
p2
(cnumpy
dtype
p3
(S'f8'
p4
I0
I1
tp5
Rp6
(I3
S'<'
p7
NNNI-1
I-1
I0
tp8
bS'Y\x1f\xb9\x94D\x14t@'
p9
tp10
Rp11
aa(lp12
I1000
ag2
(g6
S'\xd3\x8fa\xdc$\x8cV\xc0'
p13
tp14
Rp15
aa.