(lp0
(lp1
I217
acnumpy.core.multiarray
scalar
p2
(cnumpy
dtype
p3
(S'f8'
p4
I0
I1
tp5
Rp6
(I3
S'<'
p7
NNNI-1
I-1
I0
tp8
bS'F\x88f\xc6\xa1(<@'
p9
tp10
Rp11
aa(lp12
I312
ag2
(g6
S'\xae>/\xbd^\xcf\x15@'
p13
tp14
Rp15
aa(lp16
I339
ag2
(g6
S'\xfa\xa1J7-o?@'
p17
tp18
Rp19
aa(lp20
I361
ag2
(g6
S'\xe4p\x8e\t\xd1`<@'
p21
tp22
Rp23
aa(lp24
I370
ag2
(g6
S'\xe6\xcer\x83g\xbb/@'
p25
tp26
Rp27
aa(lp28
I394
ag2
(g6
S'h\xc1\xdb\xfd.\x11<@'
p29
tp30
Rp31
aa(lp32
I422
ag2
(g6
S'\x8f\x95\xef\x87\x9dS@@'
p33
tp34
Rp35
aa.