(lp0
(lp1
I127
acnumpy.core.multiarray
scalar
p2
(cnumpy
dtype
p3
(S'f8'
p4
I0
I1
tp5
Rp6
(I3
S'<'
p7
NNNI-1
I-1
I0
tp8
bS'RF\x8c\x8cR|e@'
p9
tp10
Rp11
aa(lp12
I627
ag2
(g6
S'0\xa8%D\xf7\xade@'
p13
tp14
Rp15
aa.