(lp0
(lp1
I500
acnumpy.core.multiarray
scalar
p2
(cnumpy
dtype
p3
(S'f8'
p4
I0
I1
tp5
Rp6
(I3
S'<'
p7
NNNI-1
I-1
I0
tp8
bS'\x8a^\x0c\x1e\xdcW@\xc0'
p9
tp10
Rp11
aa(lp12
I512
ag2
(g6
S'\x16\x84\xc2\xfe"\x9e4@'
p13
tp14
Rp15
aa(lp16
I524
ag2
(g6
S'$\x9d\xb0\x1eSj0@'
p17
tp18
Rp19
aa(lp20
I531
ag2
(g6
S'\xec\xb9M\xfd\xd680@'
p21
tp22
Rp23
aa(lp24
I643
ag2
(g6
S'HLO\x0bh\xa6\xf4?'
p25
tp26
Rp27
aa(lp28
I661
ag2
(g6
S'#\x96D]\x13g1@'
p29
tp30
Rp31
aa(lp32
I1161
ag2
(g6
S'pQ>\xd8\xe0\xe3P@'
p33
tp34
Rp35
aa(lp36
I1190
ag2
(g6
S'\xc3\x8b\x82\xf8\xfdI?@'
p37
tp38
Rp39
aa(lp40
I1208
ag2
(g6
S'.,@;,\xd89@'
p41
tp42
Rp43
aa(lp44
I1708
ag2
(g6
S'\x98\x07\xe8)\xd6\xe6Q\xc0'
p45
tp46
Rp47
aa(lp48
I1717
ag2
(g6
S'\xe3lme\xa6\xf81@'
p49
tp50
Rp51
aa(lp52
I1745
ag2
(g6
S'62\xf1J,)A@'
p53
tp54
Rp55
aa(lp56
I1756
ag2
(g6
S'\x8d\xa9c\xd7\xc0\xb73@'
p57
tp58
Rp59
aa(lp60
I1805
ag2
(g6
S'\xfaC\xb6\xf1O\x99E@'
p61
tp62
Rp63
aa(lp64
I1841
ag2
(g6
S'\x95\xd8\xaf5\xc2s@@'
p65
tp66
Rp67
aa(lp68
I1848
ag2
(g6
S'\xf9\xc9~M\xa0)0@'
p69
tp70
Rp71
aa(lp72
I1943
ag2
(g6
S' J\x15\x9f\xea\x82P@'
p73
tp74
Rp75
aa(lp76
I2068
ag2
(g6
S'\xf6~\x1d\x97\x1f\xfeF@'
p77
tp78
Rp79
aa(lp80
I2568
ag2
(g6
S'~#L\x02\xe1\x93!\xc0'
p81
tp82
Rp83
aa(lp84
I3068
ag2
(g6
S'X\x00-\xb3\xdb\x16\x17@'
p85
tp86
Rp87
aa(lp88
I3568
ag2
(g6
S'\x92\x7f=\xbf\xea\xe6I@'
p89
tp90
Rp91
aa.