(lp0
(lp1
I500
acnumpy.core.multiarray
scalar
p2
(cnumpy
dtype
p3
(S'f8'
p4
I0
I1
tp5
Rp6
(I3
S'<'
p7
NNNI-1
I-1
I0
tp8
bS'I)\x18\xbd7\xc8P\xc0'
p9
tp10
Rp11
aa(lp12
I1000
ag2
(g6
S'\xfe\xa3:\x90.\xf0R\xc0'
p13
tp14
Rp15
aa(lp16
I1500
ag2
(g6
S"\x11AP\xf5\xbf'O\xc0"
p17
tp18
Rp19
aa(lp20
I2000
ag2
(g6
S'5 \x89[\xd4\x95S\xc0'
p21
tp22
Rp23
aa(lp24
I2500
ag2
(g6
S'\xc8\xf2Q\xeaG>K\xc0'
p25
tp26
Rp27
aa(lp28
I3000
ag2
(g6
S'>I\x11\x0fr\xc3Q\xc0'
p29
tp30
Rp31
aa.