(lp0
(lp1
I500
aI0
aI0
acnumpy.core.multiarray
scalar
p2
(cnumpy
dtype
p3
(S'f8'
p4
I0
I1
tp5
Rp6
(I3
S'<'
p7
NNNI-1
I-1
I0
tp8
bS'\xcf\xdf]\xe1\x07X\x9e\xbf'
p9
tp10
Rp11
aa(lp12
I1000
aI1
aI0
ag2
(g6
S'\x06\xcb\x10\xf9q\xcei\xbf'
p13
tp14
Rp15
aa(lp16
I1500
aI2
aI0
ag2
(g6
S'\xe7\x18X\xf4\x0c\x0fp\xbf'
p17
tp18
Rp19
aa(lp20
I2000
aI3
aI0
ag2
(g6
S'P_\xad\xbb\x81\x18I\xbf'
p21
tp22
Rp23
aa(lp24
I2500
aI4
aI0
ag2
(g6
S'\xe4\xbet\xa6B>j\xbf'
p25
tp26
Rp27
aa(lp28
I3000
aI5
aI0
ag2
(g6
S'\xc2\xc4\x18N\xdc<}\xbf'
p29
tp30
Rp31
aa.