(lp0
(lp1
I500
acnumpy.core.multiarray
scalar
p2
(cnumpy
dtype
p3
(S'f8'
p4
I0
I1
tp5
Rp6
(I3
S'<'
p7
NNNI-1
I-1
I0
tp8
bS'\xc1\x85\xb1\xfe\xd2>`\xc0'
p9
tp10
Rp11
aa(lp12
I1000
ag2
(g6
S'\x98TH\xd3\xbf(\\\xc0'
p13
tp14
Rp15
aa(lp16
I1206
ag2
(g6
S'EO2\xb6KXd\xc0'
p17
tp18
Rp19
aa(lp20
I1207
aI-100
aa(lp21
I1315
ag2
(g6
S'>\x98\xcfg\xd11a\xc0'
p22
tp23
Rp24
aa(lp25
I1316
aI-100
aa(lp26
I1511
ag2
(g6
S'\xbd\x15w\xd4<\xb4c\xc0'
p27
tp28
Rp29
aa(lp30
I1512
aI-100
aa(lp31
I1577
ag2
(g6
S'S\xe6\xe9\xab\x8c\x8e\\\xc0'
p32
tp33
Rp34
aa(lp35
I1578
aI-100
aa(lp36
I1636
ag2
(g6
S'}\xf4>\x0e2\xa7$@'
p37
tp38
Rp39
aa(lp40
I1697
ag2
(g6
S'b\x80\xf3\xe6^\r<@'
p41
tp42
Rp43
aa(lp44
I1766
ag2
(g6
S'\x11\xbc5\x92\xfd)X\xc0'
p45
tp46
Rp47
aa(lp48
I1767
aI-100
aa(lp49
I1821
ag2
(g6
S'\x97\xb8"\x01\xbc,%@'
p50
tp51
Rp52
aa.