(lp0
(lp1
I500
acnumpy.core.multiarray
scalar
p2
(cnumpy
dtype
p3
(S'f8'
p4
I0
I1
tp5
Rp6
(I3
S'<'
p7
NNNI-1
I-1
I0
tp8
bS'~1\x19\xb7\xd8wi\xc0'
p9
tp10
Rp11
aa(lp12
I1000
ag2
(g6
S'K\xf0\xdd\xdd xg\xc0'
p13
tp14
Rp15
aa(lp16
I1500
ag2
(g6
S'\x85P\x14"\x93\x19p\xc0'
p17
tp18
Rp19
aa(lp20
I2000
ag2
(g6
S'B\xe1\xb0\x0e3%o\xc0'
p21
tp22
Rp23
aa(lp24
I2500
ag2
(g6
S'\xb6\xce\x15L\x93Qm\xc0'
p25
tp26
Rp27
aa.