(lp0
(lp1
I500
acnumpy.core.multiarray
scalar
p2
(cnumpy
dtype
p3
(S'f8'
p4
I0
I1
tp5
Rp6
(I3
S'<'
p7
NNNI-1
I-1
I0
tp8
bS'\x8e{k\xcf\x18,Y\xc0'
p9
tp10
Rp11
aa(lp12
I1000
ag2
(g6
S'\xf02S\xc7\x11\x02I@'
p13
tp14
Rp15
aa(lp16
I1500
ag2
(g6
S'\xeb\xf6\x08\x15[\xfef@'
p17
tp18
Rp19
aa(lp20
I2000
ag2
(g6
S'\x07\xe9\xa0\xed\xe2\xf1X\xc0'
p21
tp22
Rp23
aa.