(lp0
(lp1
I500
acnumpy.core.multiarray
scalar
p2
(cnumpy
dtype
p3
(S'f8'
p4
I0
I1
tp5
Rp6
(I3
S'<'
p7
NNNI-1
I-1
I0
tp8
bS'\xe5\x88\x1fw\x85\x04V\xc0'
p9
tp10
Rp11
aa(lp12
I845
ag2
(g6
S'f\xfbEX\x9epV@'
p13
tp14
Rp15
aa(lp16
I1199
ag2
(g6
S'\xea\xac\xfal\x10\xc3\\@'
p17
tp18
Rp19
aa(lp20
I1467
ag2
(g6
S'N\n\xfe\xe0\xd9\x12j\xc0'
p21
tp22
Rp23
aa(lp24
I1585
ag2
(g6
S'\x8c\xb2\x00Oq\xcet\xc0'
p25
tp26
Rp27
aa(lp28
I1991
ag2
(g6
S'&gB\xc2\xd1\x02\x9e\xc0'
p29
tp30
Rp31
aa.