(lp0
(lp1
I500
acnumpy.core.multiarray
scalar
p2
(cnumpy
dtype
p3
(S'f8'
p4
I0
I1
tp5
Rp6
(I3
S'<'
p7
NNNI-1
I-1
I0
tp8
bS'\xeb\xd7\x0b7\x18"L\xc0'
p9
tp10
Rp11
aa(lp12
I678
ag2
(g6
S'\xd0"\xe3\xe1+|\\\xc0'
p13
tp14
Rp15
aa(lp16
I679
aI-100
aa(lp17
I829
ag2
(g6
S'$l\xb4\xe8\xb9y:@'
p18
tp19
Rp20
aa(lp21
I981
ag2
(g6
S'\xc17H8p\\a\xc0'
p22
tp23
Rp24
aa(lp25
I982
aI-100
aa.