(lp0
(lp1
I500
acnumpy.core.multiarray
scalar
p2
(cnumpy
dtype
p3
(S'f8'
p4
I0
I1
tp5
Rp6
(I3
S'<'
p7
NNNI-1
I-1
I0
tp8
bS'Ri\x84%oz\r\xc0'
p9
tp10
Rp11
aa(lp12
I1000
ag2
(g6
S'\xa5s\xa0&<Ek@'
p13
tp14
Rp15
aa(lp16
I1207
ag2
(g6
S'\xbe[\xa9\xf3)\x82b\xc0'
p17
tp18
Rp19
aa(lp20
I1306
ag2
(g6
S'\x18\xe8+L6^^\xc0'
p21
tp22
Rp23
aa(lp24
I1511
ag2
(g6
S'\xf3\xa4B>\\\xac`\xc0'
p25
tp26
Rp27
aa(lp28
I1734
ag2
(g6
S'n\xe2=\xf1,\xc6b\xc0'
p29
tp30
Rp31
aa(lp32
I1886
ag2
(g6
S'eR\xbb\xfd\xf4\xb9`\xc0'
p33
tp34
Rp35
aa.