(lp0
(lp1
I500
acnumpy.core.multiarray
scalar
p2
(cnumpy
dtype
p3
(S'f8'
p4
I0
I1
tp5
Rp6
(I3
S'<'
p7
NNNI-1
I-1
I0
tp8
bS'N@p\x1d\x85\x88N\xc0'
p9
tp10
Rp11
aa(lp12
I1000
ag2
(g6
S'\xe1\xb3\xbf@c\x9fR\xc0'
p13
tp14
Rp15
aa(lp16
I1500
ag2
(g6
S'\x89^r\x81K\xebP\xc0'
p17
tp18
Rp19
aa(lp20
I2000
ag2
(g6
S'\x81b\xe4FN6:@'
p21
tp22
Rp23
aa(lp24
I2500
ag2
(g6
S'\xb4.b\xa8k\xd1N\xc0'
p25
tp26
Rp27
aa(lp28
I3000
ag2
(g6
S'>&\x7f\xa0y\xf6p\xc0'
p29
tp30
Rp31
aa(lp32
I3249
ag2
(g6
S'\x05\xc2\xbe_\x9c\x80\x94\xc0'
p33
tp34
Rp35
aa(lp36
I3681
ag2
(g6
S'\xa5\xe0\x95_@\xffn\xc0'
p37
tp38
Rp39
aa.