(lp0
(lp1
I253
acnumpy.core.multiarray
scalar
p2
(cnumpy
dtype
p3
(S'f8'
p4
I0
I1
tp5
Rp6
(I3
S'<'
p7
NNNI-1
I-1
I0
tp8
bS'\x81\xe9\xd8\x8c{m.\xc0'
p9
tp10
Rp11
aa(lp12
I753
ag2
(g6
S'\x19\x98&\x9e\xdf~G\xc0'
p13
tp14
Rp15
aa(lp16
I1253
ag2
(g6
S'\xb5S\xa1\x85\xda\x06I\xc0'
p17
tp18
Rp19
aa.