(lp0
(lp1
I500
acnumpy.core.multiarray
scalar
p2
(cnumpy
dtype
p3
(S'f8'
p4
I0
I1
tp5
Rp6
(I3
S'<'
p7
NNNI-1
I-1
I0
tp8
bS' pZ\xa2\t\xc7>\xc0'
p9
tp10
Rp11
aa(lp12
I669
ag2
(g6
S'0!^r\x99\xc1\xe2?'
p13
tp14
Rp15
aa(lp16
I770
ag2
(g6
S'&/\x95\x04\x85]\x0b@'
p17
tp18
Rp19
aa.