(lp0
(lp1
I500
acnumpy.core.multiarray
scalar
p2
(cnumpy
dtype
p3
(S'f8'
p4
I0
I1
tp5
Rp6
(I3
S'<'
p7
NNNI-1
I-1
I0
tp8
bS'\x92\xde)\t\xb5\xea[\xc0'
p9
tp10
Rp11
aa(lp12
I731
ag2
(g6
S'\x1c\x04\xb5.\xda\x9fU\xc0'
p13
tp14
Rp15
aa(lp16
I1231
ag2
(g6
S'QB\xe3dB\x8aw@'
p17
tp18
Rp19
aa(lp20
I1337
ag2
(g6
S'~\xdb*\xc1<5`\xc0'
p21
tp22
Rp23
aa(lp24
I1837
ag2
(g6
S'0\xbd4\xf93\x88`\xc0'
p25
tp26
Rp27
aa(lp28
I2337
ag2
(g6
S'~_\x82u\x07\xa7`@'
p29
tp30
Rp31
aa(lp32
I2689
ag2
(g6
S'\xe9\x0f\x9f\xdeC&i\xc0'
p33
tp34
Rp35
aa.