(lp0
(lp1
I500
acnumpy.core.multiarray
scalar
p2
(cnumpy
dtype
p3
(S'f8'
p4
I0
I1
tp5
Rp6
(I3
S'<'
p7
NNNI-1
I-1
I0
tp8
bS'S\x8a\x89\x80E\x83A\xc0'
p9
tp10
Rp11
aa(lp12
I1000
ag2
(g6
S'\x0b\xb7!JG\xf8A\xc0'
p13
tp14
Rp15
aa(lp16
I1463
ag2
(g6
S'\x19\xd85\x84T\x162\xc0'
p17
tp18
Rp19
aa(lp20
I1878
ag2
(g6
S'k&~\x89\xe7\xbb4\xc0'
p21
tp22
Rp23
aa(lp24
I2146
ag2
(g6
S'\x0fKa\xb6\xaa\t2\xc0'
p25
tp26
Rp27
aa(lp28
I2352
ag2
(g6
S'0\x9e\xff\xb3D\x8d\x03\xc0'
p29
tp30
Rp31
aa(lp32
I2539
ag2
(g6
S'\t\x9b\x16pK\x82&\xc0'
p33
tp34
Rp35
aa(lp36
I2540
aI10
aa.