(lp0
(lp1
I500
acnumpy.core.multiarray
scalar
p2
(cnumpy
dtype
p3
(S'f8'
p4
I0
I1
tp5
Rp6
(I3
S'<'
p7
NNNI-1
I-1
I0
tp8
bS'.\x97\xff%\x97+c\xc0'
p9
tp10
Rp11
aa(lp12
I1000
ag2
(g6
S'\xfc\x0e\xa5\x035b`\xc0'
p13
tp14
Rp15
aa(lp16
I1215
ag2
(g6
S'Jc\t\xc3\xf7\xe2b\xc0'
p17
tp18
Rp19
aa(lp20
I1216
aI-100
aa(lp21
I1678
ag2
(g6
S'\xe3\xe5L)\x08\xc2o\xc0'
p22
tp23
Rp24
aa(lp25
I1828
ag2
(g6
S'l\x1b\xd5\xbe\xa5\xf6a\xc0'
p26
tp27
Rp28
aa(lp29
I1829
aI-100
aa.