(lp0
(lp1
I284
acnumpy.core.multiarray
scalar
p2
(cnumpy
dtype
p3
(S'f8'
p4
I0
I1
tp5
Rp6
(I3
S'<'
p7
NNNI-1
I-1
I0
tp8
bS'\x15e\xeb@\x9d\xebg@'
p9
tp10
Rp11
aa(lp12
I322
ag2
(g6
S':\\7`<#E@'
p13
tp14
Rp15
aa(lp16
I343
ag2
(g6
S'\x82\x9e\xc9\xa1$\xbd;@'
p17
tp18
Rp19
aa.