(lp0
(lp1
I600
acnumpy.core.multiarray
scalar
p2
(cnumpy
dtype
p3
(S'f8'
p4
I0
I1
tp5
Rp6
(I3
S'<'
p7
NNNI-1
I-1
I0
tp8
bS'p\x95\x8b/\x85\xebc\xc0'
p9
tp10
Rp11
aa(lp12
I1200
ag2
(g6
S'%\xf9\xd9\xfab\xe0a\xc0'
p13
tp14
Rp15
aa(lp16
I1800
ag2
(g6
S'\x90\x1e\x06cS\xb8b\xc0'
p17
tp18
Rp19
aa(lp20
I1899
ag2
(g6
S'\xd89>\x08\xb0c%\xc0'
p21
tp22
Rp23
aa(lp24
I2027
ag2
(g6
S'\xe9\xd4|@\x92\x063\xc0'
p25
tp26
Rp27
aa.