(lp0
(lp1
I326
acnumpy.core.multiarray
scalar
p2
(cnumpy
dtype
p3
(S'f8'
p4
I0
I1
tp5
Rp6
(I3
S'<'
p7
NNNI-1
I-1
I0
tp8
bS'\xc3\xcd\xfd\x99zlg\xc0'
p9
tp10
Rp11
aa(lp12
I826
ag2
(g6
S'\xea\x80F\x13$-U\xc0'
p13
tp14
Rp15
aa(lp16
I1177
ag2
(g6
S'\x8e,?\xa5rqf\xc0'
p17
tp18
Rp19
aa(lp20
I1677
ag2
(g6
S'\x86;y\xf8\xc9\xb1Z\xc0'
p21
tp22
Rp23
aa(lp24
I1886
ag2
(g6
S'\xa8\x0e,GE%`\xc0'
p25
tp26
Rp27
aa(lp28
I2086
ag2
(g6
S'\x19\x80\xa6D\xfeU`\xc0'
p29
tp30
Rp31
aa(lp32
I2164
ag2
(g6
S'$\xdb3\x8c\xc0\xde]\xc0'
p33
tp34
Rp35
aa(lp36
I2235
ag2
(g6
S'\xbf\xe8v\xc6\xde-]\xc0'
p37
tp38
Rp39
aa(lp40
I2494
ag2
(g6
S'\xae\x08\xf0L\xcdAc\xc0'
p41
tp42
Rp43
aa.