(lp0
(lp1
I500
acnumpy.core.multiarray
scalar
p2
(cnumpy
dtype
p3
(S'f8'
p4
I0
I1
tp5
Rp6
(I3
S'<'
p7
NNNI-1
I-1
I0
tp8
bS'\x00\x10\xd9Ga\r[\xc0'
p9
tp10
Rp11
aa(lp12
I801
ag2
(g6
S'i\xb4K\xb2lY,@'
p13
tp14
Rp15
aa(lp16
I946
ag2
(g6
S'\xa1S\x18\xf5\x921a\xc0'
p17
tp18
Rp19
aa.