(lp0
(lp1
I296
acnumpy.core.multiarray
scalar
p2
(cnumpy
dtype
p3
(S'f8'
p4
I0
I1
tp5
Rp6
(I3
S'<'
p7
NNNI-1
I-1
I0
tp8
bS'\x8d~\xe1\x88\xf1\x9e\x8f\xc0'
p9
tp10
Rp11
aa(lp12
I307
ag2
(g6
S'W+\x9b\xea7C\x8f\xc0'
p13
tp14
Rp15
aa(lp16
I324
ag2
(g6
S'\x8cx+D&E\x8f\xc0'
p17
tp18
Rp19
aa.