(lp0
(lp1
I130
acnumpy.core.multiarray
scalar
p2
(cnumpy
dtype
p3
(S'f8'
p4
I0
I1
tp5
Rp6
(I3
S'<'
p7
NNNI-1
I-1
I0
tp8
bS'\xd3\x84>B\nXQ\xc0'
p9
tp10
Rp11
aa(lp12
I269
ag2
(g6
S'\xc7\xb4\xc9\x0b\xe5\x8e\x15@'
p13
tp14
Rp15
aa(lp16
I358
ag2
(g6
S'\xf7R\x84\x019\x01`\xc0'
p17
tp18
Rp19
aa.