(lp0
(lp1
I156
acnumpy.core.multiarray
scalar
p2
(cnumpy
dtype
p3
(S'f8'
p4
I0
I1
tp5
Rp6
(I3
S'<'
p7
NNNI-1
I-1
I0
tp8
bS'\x08\xe1\xb1\xdb!\x88b\xc0'
p9
tp10
Rp11
aa(lp12
I310
ag2
(g6
S'W]z\x08&\x97a\xc0'
p13
tp14
Rp15
aa(lp16
I470
ag2
(g6
S'\x9f\x1f\x9d\xfb\xcc\x8aa\xc0'
p17
tp18
Rp19
aa(lp20
I471
aI-100
aa.