(lp0
(lp1
I500
acnumpy.core.multiarray
scalar
p2
(cnumpy
dtype
p3
(S'f8'
p4
I0
I1
tp5
Rp6
(I3
S'<'
p7
NNNI-1
I-1
I0
tp8
bS'\xa6\xf3m\xe3\xf5\x89[\xc0'
p9
tp10
Rp11
aa(lp12
I1000
ag2
(g6
S'`\xc77\xedQ\xcd`\xc0'
p13
tp14
Rp15
aa(lp16
I1500
ag2
(g6
S'\xe1\x02\xf7i\x86\xdba\xc0'
p17
tp18
Rp19
aa.