(lp0
(lp1
I130
acnumpy.core.multiarray
scalar
p2
(cnumpy
dtype
p3
(S'f8'
p4
I0
I1
tp5
Rp6
(I3
S'<'
p7
NNNI-1
I-1
I0
tp8
bS'FN\xcd\xc0\xabY\x11@'
p9
tp10
Rp11
aa(lp12
I630
ag2
(g6
S'\x04\xdc\xcfT\r?B\xc0'
p13
tp14
Rp15
aa(lp16
I1130
ag2
(g6
S'~\xe8\x1c\xcbR\xf4D\xc0'
p17
tp18
Rp19
aa.