(lp0
(lp1
I500
acnumpy.core.multiarray
scalar
p2
(cnumpy
dtype
p3
(S'f8'
p4
I0
I1
tp5
Rp6
(I3
S'<'
p7
NNNI-1
I-1
I0
tp8
bS'\xb5\xdb\x86H*\xf2e@'
p9
tp10
Rp11
aa(lp12
I1000
ag2
(g6
S'\xd6\xc8c\xe7\xf1a\\\xc0'
p13
tp14
Rp15
aa(lp16
I1500
ag2
(g6
S'\x987\xedf\xc4\x85Z\xc0'
p17
tp18
Rp19
aa(lp20
I2000
ag2
(g6
S'\xbdZ\xa3\xf9\x99uX\xc0'
p21
tp22
Rp23
aa(lp24
I2500
ag2
(g6
S'\x03\xadD9n;Y\xc0'
p25
tp26
Rp27
aa(lp28
I3000
ag2
(g6
S'A?\xbe\x95\xf39`@'
p29
tp30
Rp31
aa.