(lp0
(lp1
I500
acnumpy.core.multiarray
scalar
p2
(cnumpy
dtype
p3
(S'f8'
p4
I0
I1
tp5
Rp6
(I3
S'<'
p7
NNNI-1
I-1
I0
tp8
bS'ImI}\x9c\xeeG\xc0'
p9
tp10
Rp11
aa(lp12
I1000
ag2
(g6
S'\x01\xa4\xacr\x90YF\xc0'
p13
tp14
Rp15
aa(lp16
I1357
ag2
(g6
S'\x86x\x86m\xbc/(\xc0'
p17
tp18
Rp19
aa(lp20
I1584
ag2
(g6
S'`\xd2\xc9\x8f\xd4\x90\t\xc0'
p21
tp22
Rp23
aa(lp24
I2084
ag2
(g6
S'\xad\x08\xdf\x15\xcdJ@\xc0'
p25
tp26
Rp27
aa(lp28
I2227
ag2
(g6
S'n\xe8\x903?\xa4\x0e@'
p29
tp30
Rp31
aa.