(lp0
(lp1
I372
acnumpy.core.multiarray
scalar
p2
(cnumpy
dtype
p3
(S'f8'
p4
I0
I1
tp5
Rp6
(I3
S'<'
p7
NNNI-1
I-1
I0
tp8
bS'SV\xda\xcc\xd1\x0c\xa3\xc0'
p9
tp10
Rp11
aa(lp12
I570
ag2
(g6
S'\xce^\xaf\xfa\x1fj\xb0\xc0'
p13
tp14
Rp15
aa(lp16
I873
ag2
(g6
S'/\t3I\x14,\xaa\xc0'
p17
tp18
Rp19
aa(lp20
I1284
ag2
(g6
S'\xa6d\xbd/\x8fz\xc5\xc0'
p21
tp22
Rp23
aa.