(lp0
(lp1
I500
acnumpy.core.multiarray
scalar
p2
(cnumpy
dtype
p3
(S'f8'
p4
I0
I1
tp5
Rp6
(I3
S'<'
p7
NNNI-1
I-1
I0
tp8
bS'\x8c#\x8f\xe6\x13\x8e[@'
p9
tp10
Rp11
aa(lp12
I991
ag2
(g6
S'B\x96\xef\x18\xfdIq\xc0'
p13
tp14
Rp15
aa(lp16
I1491
ag2
(g6
S'\xc2\xa5G\xcd\xb0\xa2a@'
p17
tp18
Rp19
aa.