(lp0
(lp1
I500
acnumpy.core.multiarray
scalar
p2
(cnumpy
dtype
p3
(S'f8'
p4
I0
I1
tp5
Rp6
(I3
S'<'
p7
NNNI-1
I-1
I0
tp8
bS'[|S\x14\x9e\xb4d\xc0'
p9
tp10
Rp11
aa(lp12
I1000
ag2
(g6
S'\x0f\t\xa8\x9a.\rM\xc0'
p13
tp14
Rp15
aa(lp16
I1500
ag2
(g6
S'\xa2\xdc=\x84\x83!h\xc0'
p17
tp18
Rp19
aa(lp20
I2000
ag2
(g6
S'g\xe8~#h\x81S\xc0'
p21
tp22
Rp23
aa(lp24
I2500
ag2
(g6
S';\x05:=\x99\xfbg\xc0'
p25
tp26
Rp27
aa(lp28
I3000
ag2
(g6
S'`FikO\x06j\xc0'
p29
tp30
Rp31
aa(lp32
I3500
ag2
(g6
S'\x04>\x1c6\x8d\x1dF\xc0'
p33
tp34
Rp35
aa(lp36
I4000
ag2
(g6
S'[\xe1\x91P\xc2\xffl@'
p37
tp38
Rp39
aa(lp40
I4500
ag2
(g6
S"\xf3'Z\x9d#s\x11\xc0"
p41
tp42
Rp43
aa(lp44
I5000
ag2
(g6
S'\xacq\xf6\xfb\xc3\x9e\xd3\xbf'
p45
tp46
Rp47
aa(lp48
I5500
ag2
(g6
S'\x1fr\xe0\r\xb4;_\xc0'
p49
tp50
Rp51
aa(lp52
I5597
ag2
(g6
S'\xf3\x15U\xfe\x94\xcaG@'
p53
tp54
Rp55
aa(lp56
I5678
ag2
(g6
S'\x88X\x1d\xa9;SR@'
p57
tp58
Rp59
aa(lp60
I6178
ag2
(g6
S'\x99\x9f\x00\x08J\x9ft\xc0'
p61
tp62
Rp63
aa(lp64
I6678
ag2
(g6
S'\x87\xf0\x9enp\xa4\x7f\xc0'
p65
tp66
Rp67
aa(lp68
I7178
ag2
(g6
S'\xfa\x9cAs/7|\xc0'
p69
tp70
Rp71
aa(lp72
I7678
ag2
(g6
S'/\xb3bc\xc7^F\xc0'
p73
tp74
Rp75
aa(lp76
I7757
ag2
(g6
S'\xb8wB\xa9u4@@'
p77
tp78
Rp79
aa.