(lp0
(lp1
I500
acnumpy.core.multiarray
scalar
p2
(cnumpy
dtype
p3
(S'f8'
p4
I0
I1
tp5
Rp6
(I3
S'<'
p7
NNNI-1
I-1
I0
tp8
bS'T\x88.#1\xe3[\xc0'
p9
tp10
Rp11
aa(lp12
I1000
ag2
(g6
S'e\xcc\xf5\xb0o\xdeW\xc0'
p13
tp14
Rp15
aa(lp16
I1207
ag2
(g6
S'\xfc\x88Q(h\xd7b\xc0'
p17
tp18
Rp19
aa(lp20
I1506
ag2
(g6
S'\xe6\x1dZ&v\x8fe\xc0'
p21
tp22
Rp23
aa(lp24
I1556
ag2
(g6
S'\xf5}=\xday\x13\\\xc0'
p25
tp26
Rp27
aa(lp28
I1820
ag2
(g6
S'\x80T\xa8\xe2\x96\x8f\xeb?'
p29
tp30
Rp31
aa(lp32
I1888
ag2
(g6
S'\xbc\x1b\xd3Q\xdb&]\xc0'
p33
tp34
Rp35
aa(lp36
I2388
ag2
(g6
S'\xf2[z\x81\xd0\xb0b\xc0'
p37
tp38
Rp39
aa.