(lp0
(lp1
I500
acnumpy.core.multiarray
scalar
p2
(cnumpy
dtype
p3
(S'f8'
p4
I0
I1
tp5
Rp6
(I3
S'<'
p7
NNNI-1
I-1
I0
tp8
bS'\x9b\x18\x00\xae\x1cIV\xc0'
p9
tp10
Rp11
aa(lp12
I702
ag2
(g6
S'D\xb2\x9e&-\xb1V@'
p13
tp14
Rp15
aa(lp16
I1202
ag2
(g6
S'K\x17\xff\xbeR\xd5v@'
p17
tp18
Rp19
aa(lp20
I1608
ag2
(g6
S'\xb5\xc4F\x8c\x05\x16d@'
p21
tp22
Rp23
aa.