(lp0
(lp1
I431
acnumpy.core.multiarray
scalar
p2
(cnumpy
dtype
p3
(S'f8'
p4
I0
I1
tp5
Rp6
(I3
S'<'
p7
NNNI-1
I-1
I0
tp8
bS'\x94\x80\x98ft,h\xc0'
p9
tp10
Rp11
aa(lp12
I866
ag2
(g6
S'<\xc4\xdd\x10\xe4\x82g\xc0'
p13
tp14
Rp15
aa.