(lp0
(lp1
I295
acnumpy.core.multiarray
scalar
p2
(cnumpy
dtype
p3
(S'f8'
p4
I0
I1
tp5
Rp6
(I3
S'<'
p7
NNNI-1
I-1
I0
tp8
bS'f4\xe2\xf5\xf00f\xc0'
p9
tp10
Rp11
aa(lp12
I296
aI-100
aa(lp13
I492
ag2
(g6
S'\xf8kJ\x8b\x8c\x1cc\xc0'
p14
tp15
Rp16
aa(lp17
I493
aI-100
aa.