(lp0
(lp1
I500
acnumpy.core.multiarray
scalar
p2
(cnumpy
dtype
p3
(S'f8'
p4
I0
I1
tp5
Rp6
(I3
S'<'
p7
NNNI-1
I-1
I0
tp8
bS'\x1d\xf1\x16J\xd4|X\xc0'
p9
tp10
Rp11
aa(lp12
I731
ag2
(g6
S'\xf1Y<\x96-SR@'
p13
tp14
Rp15
aa.