(lp0
(lp1
I289
acnumpy.core.multiarray
scalar
p2
(cnumpy
dtype
p3
(S'f8'
p4
I0
I1
tp5
Rp6
(I3
S'<'
p7
NNNI-1
I-1
I0
tp8
bS'sW$t\xbe\xebC@'
p9
tp10
Rp11
aa(lp12
I406
ag2
(g6
S'7\x8dYZ\x8c\x17I@'
p13
tp14
Rp15
aa(lp16
I432
ag2
(g6
S'\x1b\xae\x7fd~L@@'
p17
tp18
Rp19
aa(lp20
I484
ag2
(g6
S'W\xe4>\x91/\xc1J@'
p21
tp22
Rp23
aa(lp24
I810
ag2
(g6
S'D\x9d\xef(\xbevK\xc0'
p25
tp26
Rp27
aa(lp28
I884
ag2
(g6
S'cP\xe4\xfc\xd0c\\\xc0'
p29
tp30
Rp31
aa(lp32
I894
ag2
(g6
S'\x9a|\xf0\xb12\xc62@'
p33
tp34
Rp35
aa.