(lp0
(lp1
I500
acnumpy.core.multiarray
scalar
p2
(cnumpy
dtype
p3
(S'f8'
p4
I0
I1
tp5
Rp6
(I3
S'<'
p7
NNNI-1
I-1
I0
tp8
bS'\xed\xaa\x0b\xeb\xc3\xd8P\xc0'
p9
tp10
Rp11
aa(lp12
I1000
ag2
(g6
S'4t\x95t\x0c\xddQ\xc0'
p13
tp14
Rp15
aa.