(lp0
(lp1
I408
acnumpy.core.multiarray
scalar
p2
(cnumpy
dtype
p3
(S'f8'
p4
I0
I1
tp5
Rp6
(I3
S'<'
p7
NNNI-1
I-1
I0
tp8
bS'_\xa9K\x10\xb4\xacq@'
p9
tp10
Rp11
aa(lp12
I488
ag2
(g6
S'^r\x80O\xc4\x9cS@'
p13
tp14
Rp15
aa.