(lp0
(lp1
I274
acnumpy.core.multiarray
scalar
p2
(cnumpy
dtype
p3
(S'f8'
p4
I0
I1
tp5
Rp6
(I3
S'<'
p7
NNNI-1
I-1
I0
tp8
bS'\x94\x07^\x8c\xbc\xb8\x14\xc0'
p9
tp10
Rp11
aa(lp12
I774
ag2
(g6
S'\x8a\xd9\xea\xc4\xe4\x83E\xc0'
p13
tp14
Rp15
aa(lp16
I1274
ag2
(g6
S'}ye\xbb\xb8~@\xc0'
p17
tp18
Rp19
aa.