(lp0
(lp1
I500
acnumpy.core.multiarray
scalar
p2
(cnumpy
dtype
p3
(S'f8'
p4
I0
I1
tp5
Rp6
(I3
S'<'
p7
NNNI-1
I-1
I0
tp8
bS'\xcc\x9dU\x067\xecb\xc0'
p9
tp10
Rp11
aa(lp12
I926
ag2
(g6
S'n\x98\xc6K\xe1\xa5k\xc0'
p13
tp14
Rp15
aa(lp16
I927
aI-100
aa(lp17
I1288
ag2
(g6
S'48\x8fRF\xaf`\xc0'
p18
tp19
Rp20
aa(lp21
I1289
aI-100
aa.