(lp0
(lp1
I154
acnumpy.core.multiarray
scalar
p2
(cnumpy
dtype
p3
(S'f8'
p4
I0
I1
tp5
Rp6
(I3
S'<'
p7
NNNI-1
I-1
I0
tp8
bS'\xb6\xb8g\x0er\x05F@'
p9
tp10
Rp11
aa(lp12
I262
ag2
(g6
S'@\xf3\x86\xff?\\:@'
p13
tp14
Rp15
aa(lp16
I343
ag2
(g6
S'"F/\xe8\x91\xc7C@'
p17
tp18
Rp19
aa(lp20
I562
ag2
(g6
S'dM\x95\x92\x91ZU\xc0'
p21
tp22
Rp23
aa(lp24
I563
aI-100
aa(lp25
I686
ag2
(g6
S'?\xe1\xd5\xa5\x02KT\xc0'
p26
tp27
Rp28
aa(lp29
I687
aI-100
aa.