(lp0
(lp1
I500
acnumpy.core.multiarray
scalar
p2
(cnumpy
dtype
p3
(S'f8'
p4
I0
I1
tp5
Rp6
(I3
S'<'
p7
NNNI-1
I-1
I0
tp8
bS'7\xdb\xb8\x9cu\xe9U\xc0'
p9
tp10
Rp11
aa(lp12
I593
ag2
(g6
S'\xbb\xf9e\r\xa4\xf7I@'
p13
tp14
Rp15
aa(lp16
I1093
ag2
(g6
S'7\x95AQ\xbaSX\xc0'
p17
tp18
Rp19
aa(lp20
I1593
ag2
(g6
S'}\xbe\x8b:X\x9eQ\xc0'
p21
tp22
Rp23
aa.