(lp0
(lp1
I500
acnumpy.core.multiarray
scalar
p2
(cnumpy
dtype
p3
(S'f8'
p4
I0
I1
tp5
Rp6
(I3
S'<'
p7
NNNI-1
I-1
I0
tp8
bS'\xe4\x9a\x93\xf0\x04\x9dc@'
p9
tp10
Rp11
aa(lp12
I1000
ag2
(g6
S'\xb6\xa5Q\xbbhkQ\xc0'
p13
tp14
Rp15
aa(lp16
I1500
ag2
(g6
S'\x15Q\xb1\xde\x16kY\xc0'
p17
tp18
Rp19
aa.