(lp0
(lp1
I102
acnumpy.core.multiarray
scalar
p2
(cnumpy
dtype
p3
(S'f8'
p4
I0
I1
tp5
Rp6
(I3
S'<'
p7
NNNI-1
I-1
I0
tp8
bS'v\xea\xd7@;\xc9$\xc0'
p9
tp10
Rp11
aa(lp12
I602
ag2
(g6
S'-}A\x11\x1e\ri\xc0'
p13
tp14
Rp15
aa(lp16
I1102
ag2
(g6
S'\ros\xd1X\xabg\xc0'
p17
tp18
Rp19
aa(lp20
I1602
ag2
(g6
S'\xf8h\xb9\xb5\xf6Oh\xc0'
p21
tp22
Rp23
aa.