(lp0
(lp1
I500
acnumpy.core.multiarray
scalar
p2
(cnumpy
dtype
p3
(S'f8'
p4
I0
I1
tp5
Rp6
(I3
S'<'
p7
NNNI-1
I-1
I0
tp8
bS'\x94ic\xb68\xfeD\xc0'
p9
tp10
Rp11
aa(lp12
I989
ag2
(g6
S"0\x0b\x90'\xafq;\xc0"
p13
tp14
Rp15
aa(lp16
I1489
ag2
(g6
S'nb\xfe\x92p\xbcE\xc0'
p17
tp18
Rp19
aa(lp20
I1989
ag2
(g6
S'\xc6\xfb\xbd!~\xd1E\xc0'
p21
tp22
Rp23
aa.