(lp0
(lp1
I319
acnumpy.core.multiarray
scalar
p2
(cnumpy
dtype
p3
(S'f8'
p4
I0
I1
tp5
Rp6
(I3
S'<'
p7
NNNI-1
I-1
I0
tp8
bS'\xce\xd9\x00;0\xbdb\xc0'
p9
tp10
Rp11
aa(lp12
I819
ag2
(g6
S"Dt\xa2\xb5\xec'J\xc0"
p13
tp14
Rp15
aa.