(lp0
(lp1
I500
acnumpy.core.multiarray
scalar
p2
(cnumpy
dtype
p3
(S'f8'
p4
I0
I1
tp5
Rp6
(I3
S'<'
p7
NNNI-1
I-1
I0
tp8
bS'\x1e\xa5vm\x8f=b\xc0'
p9
tp10
Rp11
aa(lp12
I1000
ag2
(g6
S'\x19\xc6E\xb7\x8d\xb6c\xc0'
p13
tp14
Rp15
aa(lp16
I1292
ag2
(g6
S'zLU\xbb\x8d/2@'
p17
tp18
Rp19
aa(lp20
I1407
ag2
(g6
S'=\xc2C\xb6\x1b]F@'
p21
tp22
Rp23
aa(lp24
I1907
ag2
(g6
S'\x0e\xd1\xf5\xe9\x17\x96=\xc0'
p25
tp26
Rp27
aa.