(lp0
(lp1
I500
acnumpy.core.multiarray
scalar
p2
(cnumpy
dtype
p3
(S'f8'
p4
I0
I1
tp5
Rp6
(I3
S'<'
p7
NNNI-1
I-1
I0
tp8
bS'\xa4\xd2l/\\\x80`\xc0'
p9
tp10
Rp11
aa(lp12
I802
ag2
(g6
S"\x16'*\xb4h\xfbg\xc0"
p13
tp14
Rp15
aa(lp16
I903
ag2
(g6
S'h\xd42\xb7\xac\xb5_\xc0'
p17
tp18
Rp19
aa(lp20
I949
ag2
(g6
S'\x1c\x89W>\x1eS\\\xc0'
p21
tp22
Rp23
aa.