(lp0
(lp1
I147
acnumpy.core.multiarray
scalar
p2
(cnumpy
dtype
p3
(S'f8'
p4
I0
I1
tp5
Rp6
(I3
S'<'
p7
NNNI-1
I-1
I0
tp8
bS'\xb1\x8fR\x19\xe5\xd4|\xc0'
p9
tp10
Rp11
aa(lp12
I352
ag2
(g6
S'K\xdd\x91n\x8e\r\x84\xc0'
p13
tp14
Rp15
aa(lp16
I481
ag2
(g6
S'\x05\xca\xe0\xdeG^\x86\xc0'
p17
tp18
Rp19
aa.