(lp0
(lp1
I175
acnumpy.core.multiarray
scalar
p2
(cnumpy
dtype
p3
(S'f8'
p4
I0
I1
tp5
Rp6
(I3
S'<'
p7
NNNI-1
I-1
I0
tp8
bS'\xe3\x02\xd2q!\x93a\xc0'
p9
tp10
Rp11
aa(lp12
I312
ag2
(g6
S'\x8f\x06\xba_\x08\x14a\xc0'
p13
tp14
Rp15
aa(lp16
I313
aI-100
aa.