(lp0
(lp1
I500
acnumpy.core.multiarray
scalar
p2
(cnumpy
dtype
p3
(S'f8'
p4
I0
I1
tp5
Rp6
(I3
S'<'
p7
NNNI-1
I-1
I0
tp8
bS'H?g\xe0\xa8\xebf\xc0'
p9
tp10
Rp11
aa(lp12
I1000
ag2
(g6
S'\xbeN\x85(\x92\xe6c\xc0'
p13
tp14
Rp15
aa(lp16
I1500
ag2
(g6
S'\xfc\x08z\xb6\xb3\xf3[\xc0'
p17
tp18
Rp19
aa(lp20
I2000
ag2
(g6
S'\xc7\xfb\x05\xd6\xee\x80a\xc0'
p21
tp22
Rp23
aa.