(lp0
(lp1
I500
acnumpy.core.multiarray
scalar
p2
(cnumpy
dtype
p3
(S'f8'
p4
I0
I1
tp5
Rp6
(I3
S'<'
p7
NNNI-1
I-1
I0
tp8
bS'\xb0o\xc5\xc1T\x80U\xc0'
p9
tp10
Rp11
aa(lp12
I649
ag2
(g6
S'p\xb3\xb6\x83\xdaw=@'
p13
tp14
Rp15
aa(lp16
I974
ag2
(g6
S'v\x1d\x86$\xee\x0ci\xc0'
p17
tp18
Rp19
aa(lp20
I975
aI-100
aa.