(lp0
(lp1
I500
acnumpy.core.multiarray
scalar
p2
(cnumpy
dtype
p3
(S'f8'
p4
I0
I1
tp5
Rp6
(I3
S'<'
p7
NNNI-1
I-1
I0
tp8
bS'\x97\\\xdf\xa2\x8eUQ\xc0'
p9
tp10
Rp11
aa(lp12
I1000
ag2
(g6
S']\x01k9\xd5\x02r@'
p13
tp14
Rp15
aa(lp16
I1078
ag2
(g6
S'\xdb\xd8\xf8&\x07\xc7Z@'
p17
tp18
Rp19
aa(lp20
I1106
ag2
(g6
S'\x03\xca\xf7\x19.\x99H@'
p21
tp22
Rp23
aa(lp24
I1606
ag2
(g6
S'\x9f\x19\x8f/N\xdcI\xc0'
p25
tp26
Rp27
aa(lp28
I1623
ag2
(g6
S'\xd9\xef\x03f\xf2R@@'
p29
tp30
Rp31
aa(lp32
I1638
ag2
(g6
S'n\xf7_\xa5\xa3\x04=@'
p33
tp34
Rp35
aa(lp36
I1660
ag2
(g6
S'\x93\xdbb\xbd7YF@'
p37
tp38
Rp39
aa(lp40
I2160
ag2
(g6
S'H,\xecr\x86\xa4I@'
p41
tp42
Rp43
aa(lp44
I2459
ag2
(g6
S'r^8\xe1\xd7\xfdU@'
p45
tp46
Rp47
aa.