(lp0
(lp1
I500
acnumpy.core.multiarray
scalar
p2
(cnumpy
dtype
p3
(S'f8'
p4
I0
I1
tp5
Rp6
(I3
S'<'
p7
NNNI-1
I-1
I0
tp8
bS'\xbc=\xe3F\xad\xdc<\xc0'
p9
tp10
Rp11
aa(lp12
I727
ag2
(g6
S'\xc0o7\x9fp\x98e\xc0'
p13
tp14
Rp15
aa(lp16
I842
ag2
(g6
S'\xda\xe2\xd8f<+`\xc0'
p17
tp18
Rp19
aa(lp20
I933
ag2
(g6
S'\x0b\x987\xed\x1a\x93_\xc0'
p21
tp22
Rp23
aa.