(lp0
(lp1
I500
acnumpy.core.multiarray
scalar
p2
(cnumpy
dtype
p3
(S'f8'
p4
I0
I1
tp5
Rp6
(I3
S'<'
p7
NNNI-1
I-1
I0
tp8
bS'\xc4\xbe-\x05l\x12N\xc0'
p9
tp10
Rp11
aa(lp12
I1000
ag2
(g6
S'\xa4\x95U\xbb\x19\x99N\xc0'
p13
tp14
Rp15
aa(lp16
I1500
ag2
(g6
S'.\xdc?\x8eh\x95O\xc0'
p17
tp18
Rp19
aa(lp20
I2000
ag2
(g6
S'\x8a\xa0G;\xbd\x83N\xc0'
p21
tp22
Rp23
aa(lp24
I2500
ag2
(g6
S'w\xde\x16\xe6\x8bmP\xc0'
p25
tp26
Rp27
aa.