(lp0
(lp1
I472
acnumpy.core.multiarray
scalar
p2
(cnumpy
dtype
p3
(S'f8'
p4
I0
I1
tp5
Rp6
(I3
S'<'
p7
NNNI-1
I-1
I0
tp8
bS'\xe0`d\xf8\x0c\xd6H\xc0'
p9
tp10
Rp11
aa(lp12
I972
ag2
(g6
S't\xa5\x15\x02\x18\xb4Y\xc0'
p13
tp14
Rp15
aa(lp16
I1472
ag2
(g6
S'\xec\xd3\x17\x96\x88vY@'
p17
tp18
Rp19
aa(lp20
I1628
ag2
(g6
S'%\x17\x03\xf2\x8a\xf3a@'
p21
tp22
Rp23
aa(lp24
I2048
ag2
(g6
S'ok\xbc\xdeP\x96w@'
p25
tp26
Rp27
aa(lp28
I2155
ag2
(g6
S'\xa0c\xe7E{:Z@'
p29
tp30
Rp31
aa(lp32
I2511
ag2
(g6
S'\xf20=D\x90Ot@'
p33
tp34
Rp35
aa(lp36
I3011
ag2
(g6
S'\x96\x88\xb7u\xb1\\a\xc0'
p37
tp38
Rp39
aa(lp40
I3511
ag2
(g6
S'\xfd\xa9\xfbM9\n2@'
p41
tp42
Rp43
aa(lp44
I3958
ag2
(g6
S'\x1exB\x11\x0b\xd5j\xc0'
p45
tp46
Rp47
aa.