(lp0
(lp1
I500
acnumpy.core.multiarray
scalar
p2
(cnumpy
dtype
p3
(S'f8'
p4
I0
I1
tp5
Rp6
(I3
S'<'
p7
NNNI-1
I-1
I0
tp8
bS'Q2\xf9\xdc$Pd\xc0'
p9
tp10
Rp11
aa(lp12
I1000
ag2
(g6
S'k\x9e\xf7\xe6-\t`\xc0'
p13
tp14
Rp15
aa(lp16
I1500
ag2
(g6
S'8\x95/\xaa\x06\xc4e\xc0'
p17
tp18
Rp19
aa(lp20
I2000
ag2
(g6
S'&H\xa3\xdc\xd7\xc0 @'
p21
tp22
Rp23
aa(lp24
I2500
ag2
(g6
S'\xabX\x01\x9e\xa3\xc9d\xc0'
p25
tp26
Rp27
aa(lp28
I2713
ag2
(g6
S'\xde\xeb(\xd9\xd4{f\xc0'
p29
tp30
Rp31
aa(lp32
I2977
ag2
(g6
S'\x88wW\x0ec\xd7h\xc0'
p33
tp34
Rp35
aa(lp36
I3477
ag2
(g6
S'{\xcc\xa1\xb9\xcbHf\xc0'
p37
tp38
Rp39
aa(lp40
I3977
ag2
(g6
S'iQ\xfc\x0b\x9b?`\xc0'
p41
tp42
Rp43
aa(lp44
I4477
ag2
(g6
S'\xd4\xaf&\xa2`\x0ek@'
p45
tp46
Rp47
aa(lp48
I4977
ag2
(g6
S'@\x98\xda\x1f&oc\xc0'
p49
tp50
Rp51
aa(lp52
I5477
ag2
(g6
S'%s=\x85\x8fFT\xc0'
p53
tp54
Rp55
aa(lp56
I5977
ag2
(g6
S'\x08\x1a\xe2f\x90\xe7`\xc0'
p57
tp58
Rp59
aa(lp60
I6105
ag2
(g6
S'$db\xea\xbawb\xc0'
p61
tp62
Rp63
aa(lp64
I6605
ag2
(g6
S'\x1a4Sw\xedR]\xc0'
p65
tp66
Rp67
aa(lp68
I7105
ag2
(g6
S'V\x9f\xdb\x06X\xdbP@'
p69
tp70
Rp71
aa(lp72
I7605
ag2
(g6
S'dfbUU\x04e\xc0'
p73
tp74
Rp75
aa.