(lp0
(lp1
I500
acnumpy.core.multiarray
scalar
p2
(cnumpy
dtype
p3
(S'f8'
p4
I0
I1
tp5
Rp6
(I3
S'<'
p7
NNNI-1
I-1
I0
tp8
bS'\xae\xdcz\x05\x02\xbd]\xc0'
p9
tp10
Rp11
aa(lp12
I1000
ag2
(g6
S"'m]1k\xfa_\xc0"
p13
tp14
Rp15
aa(lp16
I1500
ag2
(g6
S'\xf5\xca\xcf\xa4\xef\x9b^\xc0'
p17
tp18
Rp19
aa(lp20
I2000
ag2
(g6
S'\x8eNY\xbbf\r_\xc0'
p21
tp22
Rp23
aa(lp24
I2500
ag2
(g6
S'\xca\x1a\x1d\x02\xa7\x7f^\xc0'
p25
tp26
Rp27
aa.