(lp0
(lp1
I500
acnumpy.core.multiarray
scalar
p2
(cnumpy
dtype
p3
(S'f8'
p4
I0
I1
tp5
Rp6
(I3
S'<'
p7
NNNI-1
I-1
I0
tp8
bS'\x00\xf5h\x13\xf7\xa6T\xc0'
p9
tp10
Rp11
aa(lp12
I1000
ag2
(g6
S'5\x7f\xf7H;\xfcT\xc0'
p13
tp14
Rp15
aa(lp16
I1111
ag2
(g6
S'N\x06\n\x0e\xf7`C@'
p17
tp18
Rp19
aa.