(lp0
(lp1
I121
acnumpy.core.multiarray
scalar
p2
(cnumpy
dtype
p3
(S'f8'
p4
I0
I1
tp5
Rp6
(I3
S'<'
p7
NNNI-1
I-1
I0
tp8
bS'\xf6*|\xf6\xb7}U@'
p9
tp10
Rp11
aa(lp12
I621
ag2
(g6
S'\x87S\xf0\xd0\xf8\xa0`\xc0'
p13
tp14
Rp15
aa(lp16
I1121
ag2
(g6
S'\xb6qH\xe18V`\xc0'
p17
tp18
Rp19
aa(lp20
I1621
ag2
(g6
S'\xc5q+\xe4$\xd2I\xc0'
p21
tp22
Rp23
aa.