(lp0
(lp1
I500
acnumpy.core.multiarray
scalar
p2
(cnumpy
dtype
p3
(S'f8'
p4
I0
I1
tp5
Rp6
(I3
S'<'
p7
NNNI-1
I-1
I0
tp8
bS'\x0b.%<\x9a\xb7B\xc0'
p9
tp10
Rp11
aa(lp12
I675
ag2
(g6
S'\x80y\xf0\x93\xd0\xd0\xc6\xbf'
p13
tp14
Rp15
aa(lp16
I897
ag2
(g6
S't\x02&\xfbF\x90\x18\xc0'
p17
tp18
Rp19
aa(lp20
I1242
ag2
(g6
S'\xea\x84\xd8j\tJ(\xc0'
p21
tp22
Rp23
aa(lp24
I1476
ag2
(g6
S'8f\x8b\x97"l\x1d\xc0'
p25
tp26
Rp27
aa.