(lp0
(lp1
I256
acnumpy.core.multiarray
scalar
p2
(cnumpy
dtype
p3
(S'f8'
p4
I0
I1
tp5
Rp6
(I3
S'<'
p7
NNNI-1
I-1
I0
tp8
bS'\xb9\x8b\xdd:\x9d%Q\xc0'
p9
tp10
Rp11
aa(lp12
I347
ag2
(g6
S"7lT\x8b\xd1\x8a'\xc0"
p13
tp14
Rp15
aa.