(lp0
(lp1
I500
acnumpy.core.multiarray
scalar
p2
(cnumpy
dtype
p3
(S'f8'
p4
I0
I1
tp5
Rp6
(I3
S'<'
p7
NNNI-1
I-1
I0
tp8
bS'\xac\xd7\xbf\x04\x1e\x87[\xc0'
p9
tp10
Rp11
aa(lp12
I1000
ag2
(g6
S'=\xdb\xc3\x91\x15\xcd@@'
p13
tp14
Rp15
aa(lp16
I1500
ag2
(g6
S'[\xcaGY\x9b\xb61\xc0'
p17
tp18
Rp19
aa(lp20
I1564
ag2
(g6
S'\xa0\x19\xa6\xe8M\xcd@@'
p21
tp22
Rp23
aa(lp24
I2064
ag2
(g6
S'v\xe2}sT%Q\xc0'
p25
tp26
Rp27
aa(lp28
I2564
ag2
(g6
S'\xf6\xe4C\x1aq\xa0_\xc0'
p29
tp30
Rp31
aa(lp32
I3064
ag2
(g6
S'wE\xe2\xec\xea\xd2\\\xc0'
p33
tp34
Rp35
aa(lp36
I3564
ag2
(g6
S'[u\x1e\x13\x07Ma\xc0'
p37
tp38
Rp39
aa.