(lp0
(lp1
I79
acnumpy.core.multiarray
scalar
p2
(cnumpy
dtype
p3
(S'f8'
p4
I0
I1
tp5
Rp6
(I3
S'<'
p7
NNNI-1
I-1
I0
tp8
bS'\xc4\xbaJ\xefW\x03\x0f@'
p9
tp10
Rp11
aa(lp12
I579
ag2
(g6
S'4p\xb1!\x85\x18F\xc0'
p13
tp14
Rp15
aa(lp16
I917
ag2
(g6
S'\xc9\x0f\x86\xc9\x05\xa3`\xc0'
p17
tp18
Rp19
aa.